target datalayout = "e-m:e-p270:32:32-p271:32:32-p272:64:64-i64:64-i128:128-f80:128-n8:16:32:64-S128"
target triple = "x86_64-pc-linux-gnu"

%struct._urb_info_t = type { i16, i16, i8, i32, i8, i32, i8, i8, i8, i32, ptr, ptr }
%struct._usb_conv_info_t = type { i8, i16, i16, i16, i16, i8, i16, i32, i16, i8, ptr, ptr, i32, ptr }

@hf_ac_if_hdr_ver = internal global i32 0, align 4
@hf_ac_if_hdr_total_len = internal global i32 0, align 4
@hf_ac_if_hdr_bInCollection = internal global i32 0, align 4
@hf_ac_if_hdr_if_num = internal global i32 0, align 4
@hf_ac_if_hdr_category = internal global i32 0, align 4
@hf_ac_if_hdr_controls = internal global i32 0, align 4
@ett_ac_if_hdr_controls = internal global i32 0, align 4
@dissect_ac_if_hdr_body.bm_controls = internal constant [3 x ptr] [ptr @hf_ac_if_hdr_controls_latency, ptr @hf_ac_if_hdr_controls_rsv, ptr null], align 16
@.str.805 = private unnamed_addr constant [6 x i8] c"%2.2f\00", align 1

; Function Attrs: null_pointer_is_valid sspstrong uwtable
define internal i32 @dissect_ac_if_hdr_body(ptr noundef %0, i32 noundef %1, ptr noundef %2, ptr noundef %3, ptr noundef %4) #1 {
  %6 = alloca ptr, align 8
  %7 = alloca i32, align 4
  %8 = alloca ptr, align 8
  %9 = alloca ptr, align 8
  %10 = alloca ptr, align 8
  %11 = alloca i32, align 4
  %12 = alloca i16, align 2
  %13 = alloca i8, align 1
  %14 = alloca double, align 8
  %15 = alloca i8, align 1
  %16 = alloca i8, align 1
  store ptr %0, ptr %6, align 8
  store i32 %1, ptr %7, align 4
  store ptr %2, ptr %8, align 8
  store ptr %3, ptr %9, align 8
  store ptr %4, ptr %10, align 8
  call void @llvm.lifetime.start.p0(i64 4, ptr %11) #11
  call void @llvm.lifetime.start.p0(i64 2, ptr %12) #11
  call void @llvm.lifetime.start.p0(i64 1, ptr %13) #11
  call void @llvm.lifetime.start.p0(i64 8, ptr %14) #11
  call void @llvm.lifetime.start.p0(i64 1, ptr %15) #11
  call void @llvm.lifetime.start.p0(i64 1, ptr %16) #11
  %17 = load i32, ptr %7, align 4
  store i32 %17, ptr %11, align 4
  %18 = load ptr, ptr %6, align 8
  %19 = load i32, ptr %7, align 4
  %20 = call zeroext i16 @tvb_get_letohs(ptr noundef %18, i32 noundef %19)
  store i16 %20, ptr %12, align 2
  %21 = load i16, ptr %12, align 2
  %22 = zext i16 %21 to i32
  %23 = ashr i32 %22, 8
  %24 = and i32 %23, 240
  %25 = ashr i32 %24, 4
  %26 = mul i32 %25, 10
  %27 = load i16, ptr %12, align 2
  %28 = zext i16 %27 to i32
  %29 = ashr i32 %28, 8
  %30 = and i32 %29, 15
  %31 = add i32 %26, %30
  %32 = trunc i32 %31 to i8
  store i8 %32, ptr %13, align 1
  %33 = load i8, ptr %13, align 1
  %34 = zext i8 %33 to i32
  %35 = sitofp i32 %34 to double
  %36 = load i16, ptr %12, align 2
  %37 = zext i16 %36 to i32
  %38 = and i32 %37, 255
  %39 = and i32 %38, 240
  %40 = ashr i32 %39, 4
  %41 = mul i32 %40, 10
  %42 = load i16, ptr %12, align 2
  %43 = zext i16 %42 to i32
  %44 = and i32 %43, 255
  %45 = and i32 %44, 15
  %46 = add i32 %41, %45
  %47 = sitofp i32 %46 to double
  %48 = fdiv double %47, 1.000000e+02
  %49 = fadd double %35, %48
  store double %49, ptr %14, align 8
  %50 = load ptr, ptr %9, align 8
  %51 = load i32, ptr @hf_ac_if_hdr_ver, align 4
  %52 = load ptr, ptr %6, align 8
  %53 = load i32, ptr %7, align 4
  %54 = load double, ptr %14, align 8
  %55 = load double, ptr %14, align 8
  %56 = call ptr (ptr, i32, ptr, i32, i32, double, ptr, ...) @proto_tree_add_double_format_value(ptr noundef %50, i32 noundef %51, ptr noundef %52, i32 noundef %53, i32 noundef 2, double noundef %54, ptr noundef @.str.805, double noundef %55)
  %57 = load i32, ptr %7, align 4
  %58 = add i32 %57, 2
  store i32 %58, ptr %7, align 4
  %59 = load ptr, ptr %10, align 8
  %60 = getelementptr inbounds nuw %struct._urb_info_t, ptr %59, i32 0, i32 11
  %61 = load ptr, ptr %60, align 8
  %62 = getelementptr inbounds nuw %struct._usb_conv_info_t, ptr %61, i32 0, i32 4
  %63 = load i16, ptr %62, align 8
  %64 = zext i16 %63 to i32
  %65 = icmp eq i32 %64, 0
  br i1 %65, label %66, label %102

66:                                               ; preds = %5
  %67 = load ptr, ptr %9, align 8
  %68 = load i32, ptr @hf_ac_if_hdr_total_len, align 4
  %69 = load ptr, ptr %6, align 8
  %70 = load i32, ptr %7, align 4
  %71 = call ptr @proto_tree_add_item(ptr noundef %67, i32 noundef %68, ptr noundef %69, i32 noundef %70, i32 noundef 2, i32 noundef -2147483648)
  %72 = load i32, ptr %7, align 4
  %73 = add i32 %72, 2
  store i32 %73, ptr %7, align 4
  %74 = load ptr, ptr %6, align 8
  %75 = load i32, ptr %7, align 4
  %76 = call zeroext i8 @tvb_get_uint8(ptr noundef %74, i32 noundef %75)
  store i8 %76, ptr %15, align 1
  %77 = load ptr, ptr %9, align 8
  %78 = load i32, ptr @hf_ac_if_hdr_bInCollection, align 4
  %79 = load ptr, ptr %6, align 8
  %80 = load i32, ptr %7, align 4
  %81 = call ptr @proto_tree_add_item(ptr noundef %77, i32 noundef %78, ptr noundef %79, i32 noundef %80, i32 noundef 1, i32 noundef -2147483648)
  %82 = load i32, ptr %7, align 4
  %83 = add i32 %82, 1
  store i32 %83, ptr %7, align 4
  store i8 0, ptr %16, align 1
  br label %84

84:                                               ; preds = %98, %66
  %85 = load i8, ptr %16, align 1
  %86 = zext i8 %85 to i32
  %87 = load i8, ptr %15, align 1
  %88 = zext i8 %87 to i32
  %89 = icmp slt i32 %86, %88
  br i1 %89, label %90, label %101

90:                                               ; preds = %84
  %91 = load ptr, ptr %9, align 8
  %92 = load i32, ptr @hf_ac_if_hdr_if_num, align 4
  %93 = load ptr, ptr %6, align 8
  %94 = load i32, ptr %7, align 4
  %95 = call ptr @proto_tree_add_item(ptr noundef %91, i32 noundef %92, ptr noundef %93, i32 noundef %94, i32 noundef 1, i32 noundef -2147483648)
  %96 = load i32, ptr %7, align 4
  %97 = add i32 %96, 1
  store i32 %97, ptr %7, align 4
  br label %98

98:                                               ; preds = %90
  %99 = load i8, ptr %16, align 1
  %100 = add i8 %99, 1
  store i8 %100, ptr %16, align 1
  br label %84, !llvm.loop !11

101:                                              ; preds = %84
  br label %134

102:                                              ; preds = %5
  %103 = load ptr, ptr %10, align 8
  %104 = getelementptr inbounds nuw %struct._urb_info_t, ptr %103, i32 0, i32 11
  %105 = load ptr, ptr %104, align 8
  %106 = getelementptr inbounds nuw %struct._usb_conv_info_t, ptr %105, i32 0, i32 4
  %107 = load i16, ptr %106, align 8
  %108 = zext i16 %107 to i32
  %109 = icmp eq i32 %108, 32
  br i1 %109, label %110, label %133

110:                                              ; preds = %102
  %111 = load ptr, ptr %9, align 8
  %112 = load i32, ptr @hf_ac_if_hdr_category, align 4
  %113 = load ptr, ptr %6, align 8
  %114 = load i32, ptr %7, align 4
  %115 = call ptr @proto_tree_add_item(ptr noundef %111, i32 noundef %112, ptr noundef %113, i32 noundef %114, i32 noundef 1, i32 noundef -2147483648)
  %116 = load i32, ptr %7, align 4
  %117 = add i32 %116, 1
  store i32 %117, ptr %7, align 4
  %118 = load ptr, ptr %9, align 8
  %119 = load i32, ptr @hf_ac_if_hdr_total_len, align 4
  %120 = load ptr, ptr %6, align 8
  %121 = load i32, ptr %7, align 4
  %122 = call ptr @proto_tree_add_item(ptr noundef %118, i32 noundef %119, ptr noundef %120, i32 noundef %121, i32 noundef 2, i32 noundef -2147483648)
  %123 = load i32, ptr %7, align 4
  %124 = add i32 %123, 2
  store i32 %124, ptr %7, align 4
  %125 = load ptr, ptr %9, align 8
  %126 = load ptr, ptr %6, align 8
  %127 = load i32, ptr %7, align 4
  %128 = load i32, ptr @hf_ac_if_hdr_controls, align 4
  %129 = load i32, ptr @ett_ac_if_hdr_controls, align 4
  %130 = call ptr @proto_tree_add_bitmask(ptr noundef %125, ptr noundef %126, i32 noundef %127, i32 noundef %128, i32 noundef %129, ptr noundef @dissect_ac_if_hdr_body.bm_controls, i32 noundef -2147483648)
  %131 = load i32, ptr %7, align 4
  %132 = add i32 %131, 1
  store i32 %132, ptr %7, align 4
  br label %133

133:                                              ; preds = %110, %102
  br label %134

134:                                              ; preds = %133, %101
  %135 = load i32, ptr %7, align 4
  %136 = load i32, ptr %11, align 4
  %137 = sub i32 %135, %136
  call void @llvm.lifetime.end.p0(i64 1, ptr %16) #11
  call void @llvm.lifetime.end.p0(i64 1, ptr %15) #11
  call void @llvm.lifetime.end.p0(i64 8, ptr %14) #11
  call void @llvm.lifetime.end.p0(i64 1, ptr %13) #11
  call void @llvm.lifetime.end.p0(i64 2, ptr %12) #11
  call void @llvm.lifetime.end.p0(i64 4, ptr %11) #11
  ret i32 %137
}