; Function Attrs: null_pointer_is_valid sspstrong uwtable
define internal fastcc range(i32 -2147483648, 2147483646) i32 @dissect_ac_if_hdr_body(ptr noundef %0, ptr noundef %1, ptr noundef readonly captures(none) %2) unnamed_addr #1 {
  %4 = tail call zeroext i16 @tvb_get_letohs(ptr noundef %0, i32 noundef 3)
  %5 = lshr i16 %4, 8
  %6 = lshr i16 %4, 12
  %7 = mul nuw nsw i16 %6, 10
  %8 = and i16 %5, 15
  %9 = add nuw nsw i16 %7, %8
  %10 = uitofp nneg i16 %9 to double
  %11 = and i16 %4, 255
  %12 = zext nneg i16 %11 to i32
  %13 = lshr i32 %12, 4
  %14 = mul nuw nsw i32 %13, 10
  %15 = and i32 %12, 15
  %16 = add nuw nsw i32 %14, %15
  %17 = uitofp nneg i32 %16 to double
  %18 = fdiv double %17, 1.000000e+02
  %19 = fadd double %18, %10
  %20 = load i32, ptr @hf_ac_if_hdr_ver, align 4
  %21 = tail call ptr (ptr, i32, ptr, i32, i32, double, ptr, ...) @proto_tree_add_double_format_value(ptr noundef %1, i32 noundef %20, ptr noundef %0, i32 noundef 3, i32 noundef 2, double noundef %19, ptr noundef nonnull @.str.805, double noundef %19)
  %22 = getelementptr inbounds nuw i8, ptr %2, i64 40
  %23 = load ptr, ptr %22, align 8
  %24 = getelementptr inbounds nuw i8, ptr %23, i64 8
  %25 = load i16, ptr %24, align 8
  switch i16 %25, label %.loopexit [
    i16 0, label %26
    i16 32, label %36
  ]

26:                                               ; preds = %3
  %27 = load i32, ptr @hf_ac_if_hdr_total_len, align 4
  %28 = tail call ptr @proto_tree_add_item(ptr noundef %1, i32 noundef %27, ptr noundef %0, i32 noundef 5, i32 noundef 2, i32 noundef -2147483648)
  %29 = tail call zeroext i8 @tvb_get_uint8(ptr noundef %0, i32 noundef 7)
  %30 = load i32, ptr @hf_ac_if_hdr_bInCollection, align 4
  %31 = tail call ptr @proto_tree_add_item(ptr noundef %1, i32 noundef %30, ptr noundef %0, i32 noundef 7, i32 noundef 1, i32 noundef -2147483648)
  %.not = icmp eq i8 %29, 0
  br i1 %.not, label %.loopexit, label %.lr.ph.preheader

.lr.ph.preheader:                                 ; preds = %26
  %32 = add i8 %29, 8
  br label %.lr.ph

.lr.ph:                                           ; preds = %.lr.ph.preheader, %.lr.ph
  %.0461 = phi i32 [ %35, %.lr.ph ], [ 8, %.lr.ph.preheader ]
  %33 = load i32, ptr @hf_ac_if_hdr_if_num, align 4
  %34 = tail call ptr @proto_tree_add_item(ptr noundef %1, i32 noundef %33, ptr noundef %0, i32 noundef %.0461, i32 noundef 1, i32 noundef -2147483648)
  %35 = add nuw nsw i32 %.0461, 1
  %lftr.wideiv = trunc i32 %35 to i8
  %exitcond.not = icmp eq i8 %32, %lftr.wideiv
  br i1 %exitcond.not, label %.loopexit.loopexit, label %.lr.ph, !llvm.loop !10

36:                                               ; preds = %3
  %37 = load i32, ptr @hf_ac_if_hdr_category, align 4
  %38 = tail call ptr @proto_tree_add_item(ptr noundef %1, i32 noundef %37, ptr noundef %0, i32 noundef 5, i32 noundef 1, i32 noundef -2147483648)
  %39 = load i32, ptr @hf_ac_if_hdr_total_len, align 4
  %40 = tail call ptr @proto_tree_add_item(ptr noundef %1, i32 noundef %39, ptr noundef %0, i32 noundef 6, i32 noundef 2, i32 noundef -2147483648)
  %41 = load i32, ptr @hf_ac_if_hdr_controls, align 4
  %42 = load i32, ptr @ett_ac_if_hdr_controls, align 4
  %43 = tail call ptr @proto_tree_add_bitmask(ptr noundef %1, ptr noundef %0, i32 noundef 8, i32 noundef %41, i32 noundef %42, ptr noundef nonnull @dissect_ac_if_hdr_body.bm_controls, i32 noundef -2147483648)
  br label %.loopexit

.loopexit.loopexit:                               ; preds = %.lr.ph
  %44 = add nsw i32 %.0461, -2
  br label %.loopexit

.loopexit:                                        ; preds = %.loopexit.loopexit, %26, %3, %36
  %.1 = phi i32 [ 6, %36 ], [ 2, %3 ], [ 5, %26 ], [ %44, %.loopexit.loopexit ]
  ret i32 %.1
}